target datalayout = "e-m:e-p270:32:32-p271:32:32-p272:64:64-i64:64-i128:128-f80:128-n8:16:32:64-S128"
target triple = "x86_64-pc-linux-gnu"

%struct.lxb_html_parser_t = type { ptr, ptr, ptr, ptr, ptr, i32, i32, i64 }
%struct.lxb_html_tree = type { ptr, ptr, ptr, ptr, ptr, ptr, ptr, %struct.lxb_html_tree_pending_table_t, ptr, i8, i8, i8, i8, i8, i8, ptr, ptr, ptr, i32, i64 }
%struct.lxb_html_tree_pending_table_t = type { ptr, i8 }
%struct.lxb_html_document = type { %struct.lxb_dom_document, ptr, ptr, ptr, %struct.lxb_html_document_css_t, i8, ptr, i32, i32 }
%struct.lxb_dom_document = type { %struct.lxb_dom_node, i32, i32, ptr, ptr, ptr, ptr, ptr, ptr, ptr, ptr, ptr, ptr, ptr, ptr, ptr, ptr, ptr, ptr, ptr, i8, i8, i8 }
%struct.lxb_dom_node = type { %struct.lxb_dom_event_target, i64, i64, i64, ptr, ptr, ptr, ptr, ptr, ptr, ptr, i32, i64 }
%struct.lxb_dom_event_target = type { ptr }
%struct.lxb_html_document_css_t = type { ptr, ptr, ptr, ptr, ptr, ptr, ptr, ptr, i64 }
%struct.lxb_html_tokenizer = type { ptr, ptr, ptr, ptr, ptr, ptr, ptr, ptr, ptr, ptr, ptr, ptr, ptr, ptr, ptr, i64, ptr, ptr, ptr, ptr, ptr, i64, i64, ptr, ptr, i64, i64, i32, i32, i8, i32, i32, i8, ptr, i64 }

; Function Attrs: nounwind uwtable
define internal i32 @lxb_html_tree_begin(ptr noundef %0, ptr noundef %1) #0 {
  %3 = alloca ptr, align 8
  %4 = alloca ptr, align 8
  store ptr %0, ptr %3, align 8
  store ptr %1, ptr %4, align 8
  %5 = load ptr, ptr %4, align 8
  %6 = load ptr, ptr %3, align 8
  %7 = getelementptr inbounds %struct.lxb_html_tree, ptr %6, i32 0, i32 1
  store ptr %5, ptr %7, align 8
  %8 = load ptr, ptr %3, align 8
  %9 = getelementptr inbounds %struct.lxb_html_tree, ptr %8, i32 0, i32 0
  %10 = load ptr, ptr %9, align 8
  %11 = call i32 @lxb_html_tokenizer_begin(ptr noundef %10)
  ret i32 %11
}

; Function Attrs: nounwind uwtable
define internal void @lxb_html_tokenizer_attrs_mraw_set(ptr noundef %0, ptr noundef %1) #0 {
  %3 = alloca ptr, align 8
  %4 = alloca ptr, align 8
  store ptr %0, ptr %3, align 8
  store ptr %1, ptr %4, align 8
  %5 = load ptr, ptr %4, align 8
  %6 = load ptr, ptr %3, align 8
  %7 = getelementptr inbounds %struct.lxb_html_tokenizer, ptr %6, i32 0, i32 6
  store ptr %5, ptr %7, align 8
  ret void
}

; Function Attrs: nounwind uwtable
define internal void @lxb_html_tokenizer_attrs_set(ptr noundef %0, ptr noundef %1) #0 {
  %3 = alloca ptr, align 8
  %4 = alloca ptr, align 8
  store ptr %0, ptr %3, align 8
  store ptr %1, ptr %4, align 8
  %5 = load ptr, ptr %4, align 8
  %6 = load ptr, ptr %3, align 8
  %7 = getelementptr inbounds %struct.lxb_html_tokenizer, ptr %6, i32 0, i32 5
  store ptr %5, ptr %7, align 8
  ret void
}

; Function Attrs: nounwind uwtable
define internal void @lxb_html_tokenizer_tags_set(ptr noundef %0, ptr noundef %1) #0 {
  %3 = alloca ptr, align 8
  %4 = alloca ptr, align 8
  store ptr %0, ptr %3, align 8
  store ptr %1, ptr %4, align 8
  %5 = load ptr, ptr %4, align 8
  %6 = load ptr, ptr %3, align 8
  %7 = getelementptr inbounds %struct.lxb_html_tokenizer, ptr %6, i32 0, i32 4
  store ptr %5, ptr %7, align 8
  ret void
}

; Function Attrs: nounwind uwtable
define internal void @lxb_html_tokenizer_tree_set(ptr noundef %0, ptr noundef %1) #0 {
  %3 = alloca ptr, align 8
  %4 = alloca ptr, align 8
  store ptr %0, ptr %3, align 8
  store ptr %1, ptr %4, align 8
  %5 = load ptr, ptr %4, align 8
  %6 = load ptr, ptr %3, align 8
  %7 = getelementptr inbounds %struct.lxb_html_tokenizer, ptr %6, i32 0, i32 12
  store ptr %5, ptr %7, align 8
  ret void
}

; Function Attrs: nounwind uwtable
define internal ptr @lxb_html_tokenizer_tree(ptr noundef %0) #0 {
  %2 = alloca ptr, align 8
  store ptr %0, ptr %2, align 8
  %3 = load ptr, ptr %2, align 8
  %4 = getelementptr inbounds %struct.lxb_html_tokenizer, ptr %3, i32 0, i32 12
  %5 = load ptr, ptr %4, align 8
  ret ptr %5
}

; Function Attrs: nounwind uwtable
define hidden i32 @lxb_html_parse_chunk_prepare(ptr noundef %0, ptr noundef %1) #0 {
  %3 = alloca ptr, align 8
  %4 = alloca ptr, align 8
  store ptr %0, ptr %3, align 8
  store ptr %1, ptr %4, align 8
  %5 = load ptr, ptr %3, align 8
  %6 = getelementptr inbounds %struct.lxb_html_parser_t, ptr %5, i32 0, i32 5
  store i32 1, ptr %6, align 8
  %7 = load ptr, ptr %3, align 8
  %8 = getelementptr inbounds %struct.lxb_html_parser_t, ptr %7, i32 0, i32 0
  %9 = load ptr, ptr %8, align 8
  %10 = call ptr @lxb_html_tokenizer_tree(ptr noundef %9)
  %11 = load ptr, ptr %3, align 8
  %12 = getelementptr inbounds %struct.lxb_html_parser_t, ptr %11, i32 0, i32 2
  store ptr %10, ptr %12, align 8
  %13 = load ptr, ptr %3, align 8
  %14 = getelementptr inbounds %struct.lxb_html_parser_t, ptr %13, i32 0, i32 0
  %15 = load ptr, ptr %14, align 8
  %16 = load ptr, ptr %3, align 8
  %17 = getelementptr inbounds %struct.lxb_html_parser_t, ptr %16, i32 0, i32 1
  %18 = load ptr, ptr %17, align 8
  call void @lxb_html_tokenizer_tree_set(ptr noundef %15, ptr noundef %18)
  %19 = load ptr, ptr %3, align 8
  %20 = getelementptr inbounds %struct.lxb_html_parser_t, ptr %19, i32 0, i32 0
  %21 = load ptr, ptr %20, align 8
  %22 = load ptr, ptr %4, align 8
  %23 = getelementptr inbounds %struct.lxb_html_document, ptr %22, i32 0, i32 0
  %24 = getelementptr inbounds %struct.lxb_dom_document, ptr %23, i32 0, i32 14
  %25 = load ptr, ptr %24, align 8
  call void @lxb_html_tokenizer_tags_set(ptr noundef %21, ptr noundef %25)
  %26 = load ptr, ptr %3, align 8
  %27 = getelementptr inbounds %struct.lxb_html_parser_t, ptr %26, i32 0, i32 0
  %28 = load ptr, ptr %27, align 8
  %29 = load ptr, ptr %4, align 8
  %30 = getelementptr inbounds %struct.lxb_html_document, ptr %29, i32 0, i32 0
  %31 = getelementptr inbounds %struct.lxb_dom_document, ptr %30, i32 0, i32 15
  %32 = load ptr, ptr %31, align 8
  call void @lxb_html_tokenizer_attrs_set(ptr noundef %28, ptr noundef %32)
  %33 = load ptr, ptr %3, align 8
  %34 = getelementptr inbounds %struct.lxb_html_parser_t, ptr %33, i32 0, i32 0
  %35 = load ptr, ptr %34, align 8
  %36 = load ptr, ptr %4, align 8
  %37 = getelementptr inbounds %struct.lxb_html_document, ptr %36, i32 0, i32 0
  %38 = getelementptr inbounds %struct.lxb_dom_document, ptr %37, i32 0, i32 13
  %39 = load ptr, ptr %38, align 8
  call void @lxb_html_tokenizer_attrs_mraw_set(ptr noundef %35, ptr noundef %39)
  %40 = load ptr, ptr %3, align 8
  %41 = getelementptr inbounds %struct.lxb_html_parser_t, ptr %40, i32 0, i32 1
  %42 = load ptr, ptr %41, align 8
  %43 = load ptr, ptr %4, align 8
  %44 = call i32 @lxb_html_tree_begin(ptr noundef %42, ptr noundef %43)
  %45 = load ptr, ptr %3, align 8
  %46 = getelementptr inbounds %struct.lxb_html_parser_t, ptr %45, i32 0, i32 6
  store i32 %44, ptr %46, align 4
  %47 = load ptr, ptr %3, align 8
  %48 = getelementptr inbounds %struct.lxb_html_parser_t, ptr %47, i32 0, i32 6
  %49 = load i32, ptr %48, align 4
  %50 = icmp ne i32 %49, 0
  br i1 %50, label %51, label %54

51:                                               ; preds = %2
  %52 = load ptr, ptr %3, align 8
  %53 = getelementptr inbounds %struct.lxb_html_parser_t, ptr %52, i32 0, i32 5
  store i32 4, ptr %53, align 8
  br label %54

54:                                               ; preds = %51, %2
  %55 = load ptr, ptr %3, align 8
  %56 = getelementptr inbounds %struct.lxb_html_parser_t, ptr %55, i32 0, i32 6
  %57 = load i32, ptr %56, align 4
  ret i32 %57
}