; Function Attrs: nounwind uwtable
define hidden i32 @lxb_html_parse_chunk_prepare(ptr nocapture noundef %0, ptr noundef %1) local_unnamed_addr #0 {
  %3 = getelementptr inbounds i8, ptr %0, i64 40
  store i32 1, ptr %3, align 8
  %4 = load ptr, ptr %0, align 8
  %5 = getelementptr i8, ptr %4, i64 96
  %.val = load ptr, ptr %5, align 8
  %6 = getelementptr inbounds i8, ptr %0, i64 16
  store ptr %.val, ptr %6, align 8
  %7 = getelementptr inbounds i8, ptr %0, i64 8
  %8 = load ptr, ptr %7, align 8
  store ptr %8, ptr %5, align 8
  %9 = load ptr, ptr %0, align 8
  %10 = getelementptr inbounds i8, ptr %1, i64 200
  %11 = load ptr, ptr %10, align 8
  %12 = getelementptr inbounds i8, ptr %9, i64 32
  store ptr %11, ptr %12, align 8
  %13 = load ptr, ptr %0, align 8
  %14 = getelementptr inbounds i8, ptr %1, i64 208
  %15 = load ptr, ptr %14, align 8
  %16 = getelementptr inbounds i8, ptr %13, i64 40
  store ptr %15, ptr %16, align 8
  %17 = load ptr, ptr %0, align 8
  %18 = getelementptr inbounds i8, ptr %1, i64 192
  %19 = load ptr, ptr %18, align 8
  %20 = getelementptr inbounds i8, ptr %17, i64 48
  store ptr %19, ptr %20, align 8
  %21 = load ptr, ptr %7, align 8
  %22 = getelementptr inbounds i8, ptr %21, i64 8
  store ptr %1, ptr %22, align 8
  %23 = load ptr, ptr %21, align 8
  %24 = tail call i32 @lxb_html_tokenizer_begin(ptr noundef %23) #7
  %25 = getelementptr inbounds i8, ptr %0, i64 44
  store i32 %24, ptr %25, align 4
  %.not = icmp eq i32 %24, 0
  br i1 %.not, label %27, label %26

26:                                               ; preds = %2
  store i32 4, ptr %3, align 8
  br label %27

27:                                               ; preds = %26, %2
  ret i32 %24
}